target datalayout = "e-m:e-p270:32:32-p271:32:32-p272:64:64-i64:64-i128:128-f80:128-n8:16:32:64-S128"
target triple = "x86_64-pc-linux-gnu"

; Function Attrs: nounwind uwtable
define hidden i32 @tls1_set_curves(ptr noundef %0, ptr noundef %1, ptr noundef %2, i64 noundef %3) #0 {
  %5 = alloca i32, align 4
  %6 = alloca ptr, align 8
  %7 = alloca ptr, align 8
  %8 = alloca ptr, align 8
  %9 = alloca i64, align 8
  %10 = alloca ptr, align 8
  %11 = alloca i64, align 8
  %12 = alloca i32, align 4
  store ptr %0, ptr %6, align 8, !tbaa !73
  store ptr %1, ptr %7, align 8, !tbaa !66
  store ptr %2, ptr %8, align 8, !tbaa !93
  store i64 %3, ptr %9, align 8, !tbaa !56
  call void @llvm.lifetime.start.p0(i64 8, ptr %10) #8
  call void @llvm.lifetime.start.p0(i64 8, ptr %11) #8
  %13 = load i64, ptr %9, align 8, !tbaa !56
  %14 = mul i64 %13, 2
  %15 = call noalias ptr @malloc(i64 noundef %14) #9
  store ptr %15, ptr %10, align 8, !tbaa !57
  %16 = load ptr, ptr %10, align 8, !tbaa !57
  %17 = icmp eq ptr %16, null
  br i1 %17, label %18, label %19

18:                                               ; preds = %4
  store i32 0, ptr %5, align 4
  store i32 1, ptr %12, align 4
  br label %47

19:                                               ; preds = %4
  store i64 0, ptr %11, align 8, !tbaa !56
  br label %20

20:                                               ; preds = %37, %19
  %21 = load i64, ptr %11, align 8, !tbaa !56
  %22 = load i64, ptr %9, align 8, !tbaa !56
  %23 = icmp ult i64 %21, %22
  br i1 %23, label %24, label %40

24:                                               ; preds = %20
  %25 = load ptr, ptr %10, align 8, !tbaa !57
  %26 = load i64, ptr %11, align 8, !tbaa !56
  %27 = getelementptr inbounds nuw i16, ptr %25, i64 %26
  %28 = load ptr, ptr %8, align 8, !tbaa !93
  %29 = load i64, ptr %11, align 8, !tbaa !56
  %30 = getelementptr inbounds nuw i32, ptr %28, i64 %29
  %31 = load i32, ptr %30, align 4, !tbaa !58
  %32 = call i32 @ssl_nid_to_curve_id(ptr noundef %27, i32 noundef %31)
  %33 = icmp ne i32 %32, 0
  br i1 %33, label %36, label %34

34:                                               ; preds = %24
  %35 = load ptr, ptr %10, align 8, !tbaa !57
  call void @free(ptr noundef %35) #8
  store i32 0, ptr %5, align 4
  store i32 1, ptr %12, align 4
  br label %47

36:                                               ; preds = %24
  br label %37

37:                                               ; preds = %36
  %38 = load i64, ptr %11, align 8, !tbaa !56
  %39 = add i64 %38, 1
  store i64 %39, ptr %11, align 8, !tbaa !56
  br label %20, !llvm.loop !95

40:                                               ; preds = %20
  %41 = load ptr, ptr %6, align 8, !tbaa !73
  %42 = load ptr, ptr %41, align 8, !tbaa !57
  call void @free(ptr noundef %42) #8
  %43 = load ptr, ptr %10, align 8, !tbaa !57
  %44 = load ptr, ptr %6, align 8, !tbaa !73
  store ptr %43, ptr %44, align 8, !tbaa !57
  %45 = load i64, ptr %9, align 8, !tbaa !56
  %46 = load ptr, ptr %7, align 8, !tbaa !66
  store i64 %45, ptr %46, align 8, !tbaa !56
  store i32 1, ptr %5, align 4
  store i32 1, ptr %12, align 4
  br label %47

47:                                               ; preds = %40, %34, %18
  call void @llvm.lifetime.end.p0(i64 8, ptr %11) #8
  call void @llvm.lifetime.end.p0(i64 8, ptr %10) #8
  %48 = load i32, ptr %5, align 4
  ret i32 %48
}