; Function Attrs: nounwind uwtable
define hidden range(i32 0, 2) i32 @tls1_set_curves(ptr noundef captures(none) %0, ptr noundef writeonly captures(none) %1, ptr noundef readonly captures(none) %2, i64 noundef %3) local_unnamed_addr #0 {
  %5 = shl i64 %3, 1
  %6 = tail call noalias ptr @malloc(i64 noundef %5) #22
  %7 = icmp eq ptr %6, null
  br i1 %7, label %16, label %.preheader

.preheader:                                       ; preds = %4
  %.not19 = icmp eq i64 %3, 0
  br i1 %.not19, label %._crit_edge, label %.lr.ph

8:                                                ; preds = %.lr.ph
  %9 = add nuw i64 %.018, 1
  %exitcond.not = icmp eq i64 %9, %3
  br i1 %exitcond.not, label %._crit_edge, label %.lr.ph, !llvm.loop !79

.lr.ph:                                           ; preds = %.preheader, %8
  %.018 = phi i64 [ %9, %8 ], [ 0, %.preheader ]
  %10 = getelementptr inbounds nuw i16, ptr %6, i64 %.018
  %11 = getelementptr inbounds nuw i32, ptr %2, i64 %.018
  %12 = load i32, ptr %11, align 4, !tbaa !80
  %13 = tail call i32 @ssl_nid_to_curve_id(ptr noundef nonnull %10, i32 noundef %12) #21
  %.not = icmp eq i32 %13, 0
  br i1 %.not, label %14, label %8

14:                                               ; preds = %.lr.ph
  tail call void @free(ptr noundef nonnull %6) #21
  br label %16

._crit_edge:                                      ; preds = %8, %.preheader
  %15 = load ptr, ptr %0, align 8, !tbaa !81
  tail call void @free(ptr noundef %15) #21
  store ptr %6, ptr %0, align 8, !tbaa !81
  store i64 %3, ptr %1, align 8, !tbaa !52
  br label %16

16:                                               ; preds = %4, %._crit_edge, %14
  %.015 = phi i32 [ 0, %14 ], [ 1, %._crit_edge ], [ 0, %4 ]
  ret i32 %.015
}